ARM GAS  /tmp/ccMZZQHw.s 			page 1


   1              		.cpu cortex-m3
   2              		.arch armv7-m
   3              		.fpu softvfp
   4              		.eabi_attribute 20, 1
   5              		.eabi_attribute 21, 1
   6              		.eabi_attribute 23, 3
   7              		.eabi_attribute 24, 1
   8              		.eabi_attribute 25, 1
   9              		.eabi_attribute 26, 1
  10              		.eabi_attribute 30, 1
  11              		.eabi_attribute 34, 1
  12              		.eabi_attribute 18, 4
  13              		.file	"can_init.c"
  14              		.text
  15              	.Ltext0:
  16              		.cfi_sections	.debug_frame
  17              		.file 1 "Core/Src/can_init.c"
  18              		.section	.text.clock_enable,"ax",%progbits
  19              		.align	1
  20              		.global	clock_enable
  21              		.syntax unified
  22              		.thumb
  23              		.thumb_func
  25              	clock_enable:
  26              	.LFB65:
   1:Core/Src/can_init.c **** #include "can_init.h"
   2:Core/Src/can_init.c **** 
   3:Core/Src/can_init.c **** 
   4:Core/Src/can_init.c **** CAN_Msg CAN_TxMsg;
   5:Core/Src/can_init.c **** CAN_Msg CAN_RxMsg;
   6:Core/Src/can_init.c **** 
   7:Core/Src/can_init.c **** void clock_enable(void){
  27              		.loc 1 7 24 view -0
  28              		.cfi_startproc
  29              		@ args = 0, pretend = 0, frame = 0
  30              		@ frame_needed = 0, uses_anonymous_args = 0
  31              		@ link register save eliminated.
   8:Core/Src/can_init.c ****     RCC->APB2ENR |= (1<<0); //enable alternate function clock
  32              		.loc 1 8 5 view .LVU1
  33              		.loc 1 8 8 is_stmt 0 view .LVU2
  34 0000 064B     		ldr	r3, .L2
  35 0002 9A69     		ldr	r2, [r3, #24]
  36              		.loc 1 8 18 view .LVU3
  37 0004 42F00102 		orr	r2, r2, #1
  38 0008 9A61     		str	r2, [r3, #24]
   9:Core/Src/can_init.c ****     RCC->APB2ENR |= (1<<2); //enable gpioa clock
  39              		.loc 1 9 5 is_stmt 1 view .LVU4
  40              		.loc 1 9 8 is_stmt 0 view .LVU5
  41 000a 9A69     		ldr	r2, [r3, #24]
  42              		.loc 1 9 18 view .LVU6
  43 000c 42F00402 		orr	r2, r2, #4
  44 0010 9A61     		str	r2, [r3, #24]
  10:Core/Src/can_init.c ****     RCC->APB1ENR |= (1<<25); //enable can clock
  45              		.loc 1 10 5 is_stmt 1 view .LVU7
  46              		.loc 1 10 8 is_stmt 0 view .LVU8
  47 0012 DA69     		ldr	r2, [r3, #28]
  48              		.loc 1 10 18 view .LVU9
ARM GAS  /tmp/ccMZZQHw.s 			page 2


  49 0014 42F00072 		orr	r2, r2, #33554432
  50 0018 DA61     		str	r2, [r3, #28]
  11:Core/Src/can_init.c **** }
  51              		.loc 1 11 1 view .LVU10
  52 001a 7047     		bx	lr
  53              	.L3:
  54              		.align	2
  55              	.L2:
  56 001c 00100240 		.word	1073876992
  57              		.cfi_endproc
  58              	.LFE65:
  60              		.section	.text.gpio_enable,"ax",%progbits
  61              		.align	1
  62              		.global	gpio_enable
  63              		.syntax unified
  64              		.thumb
  65              		.thumb_func
  67              	gpio_enable:
  68              	.LFB66:
  12:Core/Src/can_init.c **** void gpio_enable(void){
  69              		.loc 1 12 23 is_stmt 1 view -0
  70              		.cfi_startproc
  71              		@ args = 0, pretend = 0, frame = 0
  72              		@ frame_needed = 0, uses_anonymous_args = 0
  73              		@ link register save eliminated.
  13:Core/Src/can_init.c ****     
  14:Core/Src/can_init.c ****     //pa12 -> can_tx -> alternate function output push-pull
  15:Core/Src/can_init.c ****     //pa11 -> can_rx -> input push-pull
  16:Core/Src/can_init.c ****     
  17:Core/Src/can_init.c ****     GPIOA->CRH = ~(0xFFFFFFFF);
  74              		.loc 1 17 5 view .LVU12
  75              		.loc 1 17 16 is_stmt 0 view .LVU13
  76 0000 114B     		ldr	r3, .L5
  77 0002 0022     		movs	r2, #0
  78 0004 5A60     		str	r2, [r3, #4]
  18:Core/Src/can_init.c **** 
  19:Core/Src/can_init.c ****     GPIOA->CRH &= ~(1<<12);
  79              		.loc 1 19 5 is_stmt 1 view .LVU14
  80              		.loc 1 19 10 is_stmt 0 view .LVU15
  81 0006 5A68     		ldr	r2, [r3, #4]
  82              		.loc 1 19 16 view .LVU16
  83 0008 22F48052 		bic	r2, r2, #4096
  84 000c 5A60     		str	r2, [r3, #4]
  20:Core/Src/can_init.c ****     GPIOA->CRH &= ~(1<<13);
  85              		.loc 1 20 5 is_stmt 1 view .LVU17
  86              		.loc 1 20 10 is_stmt 0 view .LVU18
  87 000e 5A68     		ldr	r2, [r3, #4]
  88              		.loc 1 20 16 view .LVU19
  89 0010 22F40052 		bic	r2, r2, #8192
  90 0014 5A60     		str	r2, [r3, #4]
  21:Core/Src/can_init.c **** 
  22:Core/Src/can_init.c ****     GPIOA->CRH &=  ~(1<<14);
  91              		.loc 1 22 5 is_stmt 1 view .LVU20
  92              		.loc 1 22 10 is_stmt 0 view .LVU21
  93 0016 5A68     		ldr	r2, [r3, #4]
  94              		.loc 1 22 16 view .LVU22
  95 0018 22F48042 		bic	r2, r2, #16384
ARM GAS  /tmp/ccMZZQHw.s 			page 3


  96 001c 5A60     		str	r2, [r3, #4]
  23:Core/Src/can_init.c ****     GPIOA->CRH |=  (1<<15);
  97              		.loc 1 23 5 is_stmt 1 view .LVU23
  98              		.loc 1 23 10 is_stmt 0 view .LVU24
  99 001e 5A68     		ldr	r2, [r3, #4]
 100              		.loc 1 23 16 view .LVU25
 101 0020 42F40042 		orr	r2, r2, #32768
 102 0024 5A60     		str	r2, [r3, #4]
  24:Core/Src/can_init.c **** 
  25:Core/Src/can_init.c ****     GPIOA->CRH |= (1<<16);
 103              		.loc 1 25 5 is_stmt 1 view .LVU26
 104              		.loc 1 25 10 is_stmt 0 view .LVU27
 105 0026 5A68     		ldr	r2, [r3, #4]
 106              		.loc 1 25 16 view .LVU28
 107 0028 42F48032 		orr	r2, r2, #65536
 108 002c 5A60     		str	r2, [r3, #4]
  26:Core/Src/can_init.c ****     GPIOA->CRH |= (1<<17);
 109              		.loc 1 26 5 is_stmt 1 view .LVU29
 110              		.loc 1 26 10 is_stmt 0 view .LVU30
 111 002e 5A68     		ldr	r2, [r3, #4]
 112              		.loc 1 26 16 view .LVU31
 113 0030 42F40032 		orr	r2, r2, #131072
 114 0034 5A60     		str	r2, [r3, #4]
  27:Core/Src/can_init.c **** 
  28:Core/Src/can_init.c ****     GPIOA->CRH &= ~(1<<18);
 115              		.loc 1 28 5 is_stmt 1 view .LVU32
 116              		.loc 1 28 10 is_stmt 0 view .LVU33
 117 0036 5A68     		ldr	r2, [r3, #4]
 118              		.loc 1 28 16 view .LVU34
 119 0038 22F48022 		bic	r2, r2, #262144
 120 003c 5A60     		str	r2, [r3, #4]
  29:Core/Src/can_init.c ****     GPIOA->CRH |= (1<<19);
 121              		.loc 1 29 5 is_stmt 1 view .LVU35
 122              		.loc 1 29 10 is_stmt 0 view .LVU36
 123 003e 5A68     		ldr	r2, [r3, #4]
 124              		.loc 1 29 16 view .LVU37
 125 0040 42F40022 		orr	r2, r2, #524288
 126 0044 5A60     		str	r2, [r3, #4]
  30:Core/Src/can_init.c **** 
  31:Core/Src/can_init.c **** }
 127              		.loc 1 31 1 view .LVU38
 128 0046 7047     		bx	lr
 129              	.L6:
 130              		.align	2
 131              	.L5:
 132 0048 00080140 		.word	1073809408
 133              		.cfi_endproc
 134              	.LFE66:
 136              		.section	.text.can_init,"ax",%progbits
 137              		.align	1
 138              		.global	can_init
 139              		.syntax unified
 140              		.thumb
 141              		.thumb_func
 143              	can_init:
 144              	.LFB67:
  32:Core/Src/can_init.c **** void can_init(void){
ARM GAS  /tmp/ccMZZQHw.s 			page 4


 145              		.loc 1 32 20 is_stmt 1 view -0
 146              		.cfi_startproc
 147              		@ args = 0, pretend = 0, frame = 0
 148              		@ frame_needed = 0, uses_anonymous_args = 0
 149              		@ link register save eliminated.
  33:Core/Src/can_init.c **** 
  34:Core/Src/can_init.c ****     NVIC->ISER[0] |= (1 << (USB_HP_CAN1_TX_IRQn  & 0x1F));//
 150              		.loc 1 34 5 view .LVU40
 151              		.loc 1 34 15 is_stmt 0 view .LVU41
 152 0000 594B     		ldr	r3, .L12
 153 0002 1A68     		ldr	r2, [r3]
 154              		.loc 1 34 19 view .LVU42
 155 0004 42F40022 		orr	r2, r2, #524288
 156 0008 1A60     		str	r2, [r3]
  35:Core/Src/can_init.c ****     NVIC->ISER[0] |= (1 << (USB_LP_CAN1_RX0_IRQn & 0x1F));//
 157              		.loc 1 35 5 is_stmt 1 view .LVU43
 158              		.loc 1 35 15 is_stmt 0 view .LVU44
 159 000a 1A68     		ldr	r2, [r3]
 160              		.loc 1 35 19 view .LVU45
 161 000c 42F48012 		orr	r2, r2, #1048576
 162 0010 1A60     		str	r2, [r3]
  36:Core/Src/can_init.c ****     
  37:Core/Src/can_init.c ****     CAN1->MCR = 0;
 163              		.loc 1 37 5 is_stmt 1 view .LVU46
 164              		.loc 1 37 15 is_stmt 0 view .LVU47
 165 0012 564B     		ldr	r3, .L12+4
 166 0014 0022     		movs	r2, #0
 167 0016 1A60     		str	r2, [r3]
  38:Core/Src/can_init.c ****     CAN1->MCR &= ~(CAN_MCR_SLEEP);
 168              		.loc 1 38 5 is_stmt 1 view .LVU48
 169              		.loc 1 38 9 is_stmt 0 view .LVU49
 170 0018 1968     		ldr	r1, [r3]
 171              		.loc 1 38 15 view .LVU50
 172 001a 21F00201 		bic	r1, r1, #2
 173 001e 1960     		str	r1, [r3]
  39:Core/Src/can_init.c ****     CAN1->MCR |= CAN_MCR_INRQ;
 174              		.loc 1 39 5 is_stmt 1 view .LVU51
 175              		.loc 1 39 9 is_stmt 0 view .LVU52
 176 0020 1968     		ldr	r1, [r3]
 177              		.loc 1 39 15 view .LVU53
 178 0022 41F00101 		orr	r1, r1, #1
 179 0026 1960     		str	r1, [r3]
  40:Core/Src/can_init.c ****     
  41:Core/Src/can_init.c ****     
  42:Core/Src/can_init.c ****     CAN1->IER = (CAN_IER_FMPIE0 | CAN_IER_TMEIE);
 180              		.loc 1 42 5 is_stmt 1 view .LVU54
 181              		.loc 1 42 15 is_stmt 0 view .LVU55
 182 0028 0321     		movs	r1, #3
 183 002a 5961     		str	r1, [r3, #20]
  43:Core/Src/can_init.c ****     
  44:Core/Src/can_init.c ****     CAN1->MCR   &=    ~(1<<16);
 184              		.loc 1 44 5 is_stmt 1 view .LVU56
 185              		.loc 1 44 9 is_stmt 0 view .LVU57
 186 002c 1968     		ldr	r1, [r3]
 187              		.loc 1 44 17 view .LVU58
 188 002e 21F48031 		bic	r1, r1, #65536
 189 0032 1960     		str	r1, [r3]
ARM GAS  /tmp/ccMZZQHw.s 			page 5


  45:Core/Src/can_init.c ****     CAN1->MCR   &=    ~(1<<2);
 190              		.loc 1 45 5 is_stmt 1 view .LVU59
 191              		.loc 1 45 9 is_stmt 0 view .LVU60
 192 0034 1968     		ldr	r1, [r3]
 193              		.loc 1 45 17 view .LVU61
 194 0036 21F00401 		bic	r1, r1, #4
 195 003a 1960     		str	r1, [r3]
  46:Core/Src/can_init.c ****     CAN1->MCR   &=    ~(1<<3);
 196              		.loc 1 46 5 is_stmt 1 view .LVU62
 197              		.loc 1 46 9 is_stmt 0 view .LVU63
 198 003c 1968     		ldr	r1, [r3]
 199              		.loc 1 46 17 view .LVU64
 200 003e 21F00801 		bic	r1, r1, #8
 201 0042 1960     		str	r1, [r3]
  47:Core/Src/can_init.c ****     CAN1->MCR   |=     (1<<4);
 202              		.loc 1 47 5 is_stmt 1 view .LVU65
 203              		.loc 1 47 9 is_stmt 0 view .LVU66
 204 0044 1968     		ldr	r1, [r3]
 205              		.loc 1 47 17 view .LVU67
 206 0046 41F01001 		orr	r1, r1, #16
 207 004a 1960     		str	r1, [r3]
  48:Core/Src/can_init.c ****     CAN1->MCR   &=    ~(1<<5);
 208              		.loc 1 48 5 is_stmt 1 view .LVU68
 209              		.loc 1 48 9 is_stmt 0 view .LVU69
 210 004c 1968     		ldr	r1, [r3]
 211              		.loc 1 48 17 view .LVU70
 212 004e 21F02001 		bic	r1, r1, #32
 213 0052 1960     		str	r1, [r3]
  49:Core/Src/can_init.c ****     CAN1->MCR   &=    ~(1<<6);
 214              		.loc 1 49 5 is_stmt 1 view .LVU71
 215              		.loc 1 49 9 is_stmt 0 view .LVU72
 216 0054 1968     		ldr	r1, [r3]
 217              		.loc 1 49 17 view .LVU73
 218 0056 21F04001 		bic	r1, r1, #64
 219 005a 1960     		str	r1, [r3]
  50:Core/Src/can_init.c ****     CAN1->MCR   &=    ~(1<<7);
 220              		.loc 1 50 5 is_stmt 1 view .LVU74
 221              		.loc 1 50 9 is_stmt 0 view .LVU75
 222 005c 1968     		ldr	r1, [r3]
 223              		.loc 1 50 17 view .LVU76
 224 005e 21F08001 		bic	r1, r1, #128
 225 0062 1960     		str	r1, [r3]
  51:Core/Src/can_init.c **** 
  52:Core/Src/can_init.c ****     CAN1->BTR = 0;
 226              		.loc 1 52 5 is_stmt 1 view .LVU77
 227              		.loc 1 52 15 is_stmt 0 view .LVU78
 228 0064 DA61     		str	r2, [r3, #28]
  53:Core/Src/can_init.c **** 
  54:Core/Src/can_init.c ****     CAN1->BTR |= (3<<24);
 229              		.loc 1 54 5 is_stmt 1 view .LVU79
 230              		.loc 1 54 9 is_stmt 0 view .LVU80
 231 0066 D969     		ldr	r1, [r3, #28]
 232              		.loc 1 54 15 view .LVU81
 233 0068 41F04071 		orr	r1, r1, #50331648
 234 006c D961     		str	r1, [r3, #28]
  55:Core/Src/can_init.c ****     
  56:Core/Src/can_init.c ****     CAN1->BTR |= (4<<20);
ARM GAS  /tmp/ccMZZQHw.s 			page 6


 235              		.loc 1 56 5 is_stmt 1 view .LVU82
 236              		.loc 1 56 9 is_stmt 0 view .LVU83
 237 006e D969     		ldr	r1, [r3, #28]
 238              		.loc 1 56 15 view .LVU84
 239 0070 41F48001 		orr	r1, r1, #4194304
 240 0074 D961     		str	r1, [r3, #28]
  57:Core/Src/can_init.c ****     CAN1->BTR |= (1<<16);
 241              		.loc 1 57 5 is_stmt 1 view .LVU85
 242              		.loc 1 57 9 is_stmt 0 view .LVU86
 243 0076 D969     		ldr	r1, [r3, #28]
 244              		.loc 1 57 15 view .LVU87
 245 0078 41F48031 		orr	r1, r1, #65536
 246 007c D961     		str	r1, [r3, #28]
  58:Core/Src/can_init.c ****     CAN1->BTR |= (3<<0);
 247              		.loc 1 58 5 is_stmt 1 view .LVU88
 248              		.loc 1 58 9 is_stmt 0 view .LVU89
 249 007e D969     		ldr	r1, [r3, #28]
 250              		.loc 1 58 15 view .LVU90
 251 0080 41F00301 		orr	r1, r1, #3
 252 0084 D961     		str	r1, [r3, #28]
  59:Core/Src/can_init.c ****     
  60:Core/Src/can_init.c ****     CAN1->BTR &= ~(1<<16);
 253              		.loc 1 60 5 is_stmt 1 view .LVU91
 254              		.loc 1 60 9 is_stmt 0 view .LVU92
 255 0086 D969     		ldr	r1, [r3, #28]
 256              		.loc 1 60 15 view .LVU93
 257 0088 21F48031 		bic	r1, r1, #65536
 258 008c D961     		str	r1, [r3, #28]
  61:Core/Src/can_init.c ****     CAN1->BTR |= (1<<17);
 259              		.loc 1 61 5 is_stmt 1 view .LVU94
 260              		.loc 1 61 9 is_stmt 0 view .LVU95
 261 008e D969     		ldr	r1, [r3, #28]
 262              		.loc 1 61 15 view .LVU96
 263 0090 41F40031 		orr	r1, r1, #131072
 264 0094 D961     		str	r1, [r3, #28]
  62:Core/Src/can_init.c ****     CAN1->BTR &= ~(1<<18);
 265              		.loc 1 62 5 is_stmt 1 view .LVU97
 266              		.loc 1 62 9 is_stmt 0 view .LVU98
 267 0096 D969     		ldr	r1, [r3, #28]
 268              		.loc 1 62 15 view .LVU99
 269 0098 21F48021 		bic	r1, r1, #262144
 270 009c D961     		str	r1, [r3, #28]
  63:Core/Src/can_init.c ****     CAN1->BTR &= ~(1<<19);
 271              		.loc 1 63 5 is_stmt 1 view .LVU100
 272              		.loc 1 63 9 is_stmt 0 view .LVU101
 273 009e D969     		ldr	r1, [r3, #28]
 274              		.loc 1 63 15 view .LVU102
 275 00a0 21F40021 		bic	r1, r1, #524288
 276 00a4 D961     		str	r1, [r3, #28]
  64:Core/Src/can_init.c ****     
  65:Core/Src/can_init.c ****     CAN1->BTR |=  (1<<20);
 277              		.loc 1 65 5 is_stmt 1 view .LVU103
 278              		.loc 1 65 9 is_stmt 0 view .LVU104
 279 00a6 D969     		ldr	r1, [r3, #28]
 280              		.loc 1 65 15 view .LVU105
 281 00a8 41F48011 		orr	r1, r1, #1048576
 282 00ac D961     		str	r1, [r3, #28]
ARM GAS  /tmp/ccMZZQHw.s 			page 7


  66:Core/Src/can_init.c ****     CAN1->BTR |=  (1<<21);
 283              		.loc 1 66 5 is_stmt 1 view .LVU106
 284              		.loc 1 66 9 is_stmt 0 view .LVU107
 285 00ae D969     		ldr	r1, [r3, #28]
 286              		.loc 1 66 15 view .LVU108
 287 00b0 41F40011 		orr	r1, r1, #2097152
 288 00b4 D961     		str	r1, [r3, #28]
  67:Core/Src/can_init.c ****     CAN1->BTR |=  (1<<22);
 289              		.loc 1 67 5 is_stmt 1 view .LVU109
 290              		.loc 1 67 9 is_stmt 0 view .LVU110
 291 00b6 D969     		ldr	r1, [r3, #28]
 292              		.loc 1 67 15 view .LVU111
 293 00b8 41F48001 		orr	r1, r1, #4194304
 294 00bc D961     		str	r1, [r3, #28]
  68:Core/Src/can_init.c **** 
  69:Core/Src/can_init.c **** 	//tq = 144 MHz
  70:Core/Src/can_init.c ****     //tbs1 = 432 MHz
  71:Core/Src/can_init.c ****     //tbs2 = 576 MHz
  72:Core/Src/can_init.c ****     //trjw = 576 MHZ
  73:Core/Src/can_init.c ****     //0.000002 nominal bit time
  74:Core/Src/can_init.c ****     /*
  75:Core/Src/can_init.c ****         
  76:Core/Src/can_init.c ****     */
  77:Core/Src/can_init.c **** 
  78:Core/Src/can_init.c ****     CAN1->MCR &= ~(CAN_MCR_INRQ);				//exit initilization mode
 295              		.loc 1 78 5 is_stmt 1 view .LVU112
 296              		.loc 1 78 9 is_stmt 0 view .LVU113
 297 00be 1968     		ldr	r1, [r3]
 298              		.loc 1 78 15 view .LVU114
 299 00c0 21F00101 		bic	r1, r1, #1
 300 00c4 1960     		str	r1, [r3]
  79:Core/Src/can_init.c ****     
  80:Core/Src/can_init.c **** 
  81:Core/Src/can_init.c ****     CAN1->sTxMailBox[0].TIR &= ~0xFFFFFFFF;
 301              		.loc 1 81 5 is_stmt 1 view .LVU115
 302              		.loc 1 81 24 is_stmt 0 view .LVU116
 303 00c6 D3F88011 		ldr	r1, [r3, #384]
 304              		.loc 1 81 29 view .LVU117
 305 00ca C3F88021 		str	r2, [r3, #384]
  82:Core/Src/can_init.c **** 
  83:Core/Src/can_init.c ****     if (CAN_TxMsg.format == STANDAR_FORMAT)
 306              		.loc 1 83 5 is_stmt 1 view .LVU118
 307              		.loc 1 83 18 is_stmt 0 view .LVU119
 308 00ce 284B     		ldr	r3, .L12+8
 309 00d0 5B7B     		ldrb	r3, [r3, #13]	@ zero_extendqisi2
 310              		.loc 1 83 8 view .LVU120
 311 00d2 A3BB     		cbnz	r3, .L8
  84:Core/Src/can_init.c ****         CAN1->sTxMailBox[0].TIR &= ~(1<<2);		    
 312              		.loc 1 84 9 is_stmt 1 view .LVU121
 313              		.loc 1 84 28 is_stmt 0 view .LVU122
 314 00d4 254A     		ldr	r2, .L12+4
 315 00d6 D2F88031 		ldr	r3, [r2, #384]
 316              		.loc 1 84 33 view .LVU123
 317 00da 23F00403 		bic	r3, r3, #4
 318 00de C2F88031 		str	r3, [r2, #384]
 319              	.L9:
  85:Core/Src/can_init.c ****     
ARM GAS  /tmp/ccMZZQHw.s 			page 8


  86:Core/Src/can_init.c ****     else if(CAN_TxMsg.format == EXTENDED_FORMAT)
  87:Core/Src/can_init.c ****         CAN1->sTxMailBox[0].TIR |= (1<<2);
  88:Core/Src/can_init.c ****     
  89:Core/Src/can_init.c ****     if(CAN_TxMsg.type == DATA_FRAME)
 320              		.loc 1 89 5 is_stmt 1 view .LVU124
 321              		.loc 1 89 17 is_stmt 0 view .LVU125
 322 00e2 234B     		ldr	r3, .L12+8
 323 00e4 9B7B     		ldrb	r3, [r3, #14]	@ zero_extendqisi2
 324              		.loc 1 89 7 view .LVU126
 325 00e6 A3BB     		cbnz	r3, .L10
  90:Core/Src/can_init.c ****         CAN1->sTxMailBox[0].TIR &= ~(1<<1);
 326              		.loc 1 90 9 is_stmt 1 view .LVU127
 327              		.loc 1 90 28 is_stmt 0 view .LVU128
 328 00e8 204A     		ldr	r2, .L12+4
 329 00ea D2F88031 		ldr	r3, [r2, #384]
 330              		.loc 1 90 33 view .LVU129
 331 00ee 23F00203 		bic	r3, r3, #2
 332 00f2 C2F88031 		str	r3, [r2, #384]
 333              	.L11:
  91:Core/Src/can_init.c ****     
  92:Core/Src/can_init.c ****     else if(CAN_TxMsg.type == REMOTE_FRAME)
  93:Core/Src/can_init.c ****         CAN1->sTxMailBox[0].TIR |= (1<<1);
  94:Core/Src/can_init.c **** 
  95:Core/Src/can_init.c ****     CAN1->sTxMailBox[0].TDTR |= (1<<3);
 334              		.loc 1 95 5 is_stmt 1 view .LVU130
 335              		.loc 1 95 24 is_stmt 0 view .LVU131
 336 00f6 1D4B     		ldr	r3, .L12+4
 337 00f8 D3F88421 		ldr	r2, [r3, #388]
 338              		.loc 1 95 30 view .LVU132
 339 00fc 42F00802 		orr	r2, r2, #8
 340 0100 C3F88421 		str	r2, [r3, #388]
  96:Core/Src/can_init.c ****     CAN1->sTxMailBox[0].TDTR |= (1<<2);
 341              		.loc 1 96 5 is_stmt 1 view .LVU133
 342              		.loc 1 96 24 is_stmt 0 view .LVU134
 343 0104 D3F88421 		ldr	r2, [r3, #388]
 344              		.loc 1 96 30 view .LVU135
 345 0108 42F00402 		orr	r2, r2, #4
 346 010c C3F88421 		str	r2, [r3, #388]
  97:Core/Src/can_init.c ****     CAN1->sTxMailBox[0].TDTR |= (1<<1);
 347              		.loc 1 97 5 is_stmt 1 view .LVU136
 348              		.loc 1 97 24 is_stmt 0 view .LVU137
 349 0110 D3F88421 		ldr	r2, [r3, #388]
 350              		.loc 1 97 30 view .LVU138
 351 0114 42F00202 		orr	r2, r2, #2
 352 0118 C3F88421 		str	r2, [r3, #388]
  98:Core/Src/can_init.c ****     CAN1->sTxMailBox[0].TDTR |= (1<<0);
 353              		.loc 1 98 5 is_stmt 1 view .LVU139
 354              		.loc 1 98 24 is_stmt 0 view .LVU140
 355 011c D3F88421 		ldr	r2, [r3, #388]
 356              		.loc 1 98 30 view .LVU141
 357 0120 42F00102 		orr	r2, r2, #1
 358 0124 C3F88421 		str	r2, [r3, #388]
  99:Core/Src/can_init.c **** 
 100:Core/Src/can_init.c ****     CAN1->sTxMailBox[0].TIR |= (0x33<<3); 
 359              		.loc 1 100 5 is_stmt 1 view .LVU142
 360              		.loc 1 100 24 is_stmt 0 view .LVU143
 361 0128 D3F88021 		ldr	r2, [r3, #384]
ARM GAS  /tmp/ccMZZQHw.s 			page 9


 362              		.loc 1 100 29 view .LVU144
 363 012c 42F4CC72 		orr	r2, r2, #408
 364 0130 C3F88021 		str	r2, [r3, #384]
 101:Core/Src/can_init.c ****     CAN1->sTxMailBox[0].TIR |= (0x0<<21); 
 365              		.loc 1 101 5 is_stmt 1 view .LVU145
 366              		.loc 1 101 24 is_stmt 0 view .LVU146
 367 0134 D3F88021 		ldr	r2, [r3, #384]
 368              		.loc 1 101 29 view .LVU147
 369 0138 C3F88021 		str	r2, [r3, #384]
 102:Core/Src/can_init.c **** 
 103:Core/Src/can_init.c **** 
 104:Core/Src/can_init.c **** }
 370              		.loc 1 104 1 view .LVU148
 371 013c 7047     		bx	lr
 372              	.L8:
  86:Core/Src/can_init.c ****         CAN1->sTxMailBox[0].TIR |= (1<<2);
 373              		.loc 1 86 10 is_stmt 1 view .LVU149
  86:Core/Src/can_init.c ****         CAN1->sTxMailBox[0].TIR |= (1<<2);
 374              		.loc 1 86 12 is_stmt 0 view .LVU150
 375 013e 012B     		cmp	r3, #1
 376 0140 CFD1     		bne	.L9
  87:Core/Src/can_init.c ****     
 377              		.loc 1 87 9 is_stmt 1 view .LVU151
  87:Core/Src/can_init.c ****     
 378              		.loc 1 87 28 is_stmt 0 view .LVU152
 379 0142 0A4A     		ldr	r2, .L12+4
 380 0144 D2F88031 		ldr	r3, [r2, #384]
  87:Core/Src/can_init.c ****     
 381              		.loc 1 87 33 view .LVU153
 382 0148 43F00403 		orr	r3, r3, #4
 383 014c C2F88031 		str	r3, [r2, #384]
 384 0150 C7E7     		b	.L9
 385              	.L10:
  92:Core/Src/can_init.c ****         CAN1->sTxMailBox[0].TIR |= (1<<1);
 386              		.loc 1 92 10 is_stmt 1 view .LVU154
  92:Core/Src/can_init.c ****         CAN1->sTxMailBox[0].TIR |= (1<<1);
 387              		.loc 1 92 12 is_stmt 0 view .LVU155
 388 0152 012B     		cmp	r3, #1
 389 0154 CFD1     		bne	.L11
  93:Core/Src/can_init.c **** 
 390              		.loc 1 93 9 is_stmt 1 view .LVU156
  93:Core/Src/can_init.c **** 
 391              		.loc 1 93 28 is_stmt 0 view .LVU157
 392 0156 054A     		ldr	r2, .L12+4
 393 0158 D2F88031 		ldr	r3, [r2, #384]
  93:Core/Src/can_init.c **** 
 394              		.loc 1 93 33 view .LVU158
 395 015c 43F00203 		orr	r3, r3, #2
 396 0160 C2F88031 		str	r3, [r2, #384]
 397 0164 C7E7     		b	.L11
 398              	.L13:
 399 0166 00BF     		.align	2
 400              	.L12:
 401 0168 00E100E0 		.word	-536813312
 402 016c 00640040 		.word	1073767424
 403 0170 00000000 		.word	CAN_TxMsg
 404              		.cfi_endproc
ARM GAS  /tmp/ccMZZQHw.s 			page 10


 405              	.LFE67:
 407              		.section	.text.can_filtre_ayarlama_takay03,"ax",%progbits
 408              		.align	1
 409              		.global	can_filtre_ayarlama_takay03
 410              		.syntax unified
 411              		.thumb
 412              		.thumb_func
 414              	can_filtre_ayarlama_takay03:
 415              	.LVL0:
 416              	.LFB68:
 105:Core/Src/can_init.c **** 
 106:Core/Src/can_init.c **** 
 107:Core/Src/can_init.c **** void can_filtre_ayarlama_takay03(uint32_t id, unsigned char format){
 417              		.loc 1 107 68 is_stmt 1 view -0
 418              		.cfi_startproc
 419              		@ args = 0, pretend = 0, frame = 0
 420              		@ frame_needed = 0, uses_anonymous_args = 0
 421              		@ link register save eliminated.
 422              		.loc 1 107 68 is_stmt 0 view .LVU160
 423 0000 10B4     		push	{r4}
 424              		.cfi_def_cfa_offset 4
 425              		.cfi_offset 4, -4
 108:Core/Src/can_init.c ****     unsigned int CAN_MsgId = 0;
 426              		.loc 1 108 5 is_stmt 1 view .LVU161
 427              	.LVL1:
 109:Core/Src/can_init.c ****     static unsigned short CAN_FilterId = 0;
 428              		.loc 1 109 5 view .LVU162
 110:Core/Src/can_init.c **** 
 111:Core/Src/can_init.c ****     if(CAN_FilterId )
 429              		.loc 1 111 5 view .LVU163
 430              		.loc 1 111 8 is_stmt 0 view .LVU164
 431 0002 1D4B     		ldr	r3, .L17
 432 0004 1988     		ldrh	r1, [r3]
 433              	.LVL2:
 434              		.loc 1 111 7 view .LVU165
 435 0006 31B1     		cbz	r1, .L15
 112:Core/Src/can_init.c ****     
 113:Core/Src/can_init.c ****     CAN1->FMR                               |=  (1<<0);                     //Filter init mode
 436              		.loc 1 113 5 is_stmt 1 view .LVU166
 437              		.loc 1 113 9 is_stmt 0 view .LVU167
 438 0008 1C4A     		ldr	r2, .L17+4
 439 000a D2F80032 		ldr	r3, [r2, #512]
 440              		.loc 1 113 45 view .LVU168
 441 000e 43F00103 		orr	r3, r3, #1
 442 0012 C2F80032 		str	r3, [r2, #512]
 443              	.L15:
 114:Core/Src/can_init.c ****     CAN1->FA1R                              &= ~(1<<CAN_FilterId);          //Deactive Filter Id
 444              		.loc 1 114 5 is_stmt 1 view .LVU169
 445              		.loc 1 114 9 is_stmt 0 view .LVU170
 446 0016 194B     		ldr	r3, .L17+4
 447 0018 D3F81C02 		ldr	r0, [r3, #540]
 448              	.LVL3:
 449              		.loc 1 114 51 view .LVU171
 450 001c 0122     		movs	r2, #1
 451 001e 8A40     		lsls	r2, r2, r1
 452              		.loc 1 114 45 view .LVU172
 453 0020 20EA0200 		bic	r0, r0, r2
ARM GAS  /tmp/ccMZZQHw.s 			page 11


 454 0024 C3F81C02 		str	r0, [r3, #540]
 115:Core/Src/can_init.c ****     CAN1->FS1R                              |=  (1<<CAN_FilterId);          //Single 32-bit scale c
 455              		.loc 1 115 5 is_stmt 1 view .LVU173
 456              		.loc 1 115 9 is_stmt 0 view .LVU174
 457 0028 D3F80C02 		ldr	r0, [r3, #524]
 458              		.loc 1 115 45 view .LVU175
 459 002c 1043     		orrs	r0, r0, r2
 460 002e C3F80C02 		str	r0, [r3, #524]
 116:Core/Src/can_init.c ****     CAN1->FM1R                              |=  (1<<CAN_FilterId);          //Two 32-bit register L
 461              		.loc 1 116 5 is_stmt 1 view .LVU176
 462              		.loc 1 116 9 is_stmt 0 view .LVU177
 463 0032 D3F80402 		ldr	r0, [r3, #516]
 464              		.loc 1 116 45 view .LVU178
 465 0036 1043     		orrs	r0, r0, r2
 466 0038 C3F80402 		str	r0, [r3, #516]
 117:Core/Src/can_init.c ****     CAN1->sFilterRegister[CAN_FilterId].FR1  =  CAN_MsgId;                  //32-bit identifier
 467              		.loc 1 117 5 is_stmt 1 view .LVU179
 468              		.loc 1 117 46 is_stmt 0 view .LVU180
 469 003c 01F14800 		add	r0, r1, #72
 470 0040 0024     		movs	r4, #0
 471 0042 43F83040 		str	r4, [r3, r0, lsl #3]
 118:Core/Src/can_init.c ****     CAN1->sFilterRegister[CAN_FilterId].FR2  =  CAN_MsgId;                  //32-bit identifier
 472              		.loc 1 118 5 is_stmt 1 view .LVU181
 473              		.loc 1 118 46 is_stmt 0 view .LVU182
 474 0046 03EBC000 		add	r0, r3, r0, lsl #3
 475 004a 4460     		str	r4, [r0, #4]
 119:Core/Src/can_init.c ****     CAN1->FFA1R                             &= ~(1<<CAN_FilterId);          //Filter assign to FIFO
 476              		.loc 1 119 5 is_stmt 1 view .LVU183
 477              		.loc 1 119 9 is_stmt 0 view .LVU184
 478 004c D3F81402 		ldr	r0, [r3, #532]
 479              		.loc 1 119 45 view .LVU185
 480 0050 20EA0200 		bic	r0, r0, r2
 481 0054 C3F81402 		str	r0, [r3, #532]
 120:Core/Src/can_init.c ****     CAN1->FA1R                              |=  (1<<CAN_FilterId);          //Active filter
 482              		.loc 1 120 5 is_stmt 1 view .LVU186
 483              		.loc 1 120 9 is_stmt 0 view .LVU187
 484 0058 D3F81C02 		ldr	r0, [r3, #540]
 485              		.loc 1 120 45 view .LVU188
 486 005c 0243     		orrs	r2, r2, r0
 487 005e C3F81C22 		str	r2, [r3, #540]
 121:Core/Src/can_init.c ****     CAN1->FMR                               &= ~(1<<0);                     //Reset init mode
 488              		.loc 1 121 5 is_stmt 1 view .LVU189
 489              		.loc 1 121 9 is_stmt 0 view .LVU190
 490 0062 D3F80022 		ldr	r2, [r3, #512]
 491              		.loc 1 121 45 view .LVU191
 492 0066 22F00102 		bic	r2, r2, #1
 493 006a C3F80022 		str	r2, [r3, #512]
 122:Core/Src/can_init.c **** 
 123:Core/Src/can_init.c ****     CAN_FilterId += 1;
 494              		.loc 1 123 5 is_stmt 1 view .LVU192
 495              		.loc 1 123 18 is_stmt 0 view .LVU193
 496 006e 0131     		adds	r1, r1, #1
 497 0070 014B     		ldr	r3, .L17
 498 0072 1980     		strh	r1, [r3]	@ movhi
 124:Core/Src/can_init.c **** 
 125:Core/Src/can_init.c **** }
 499              		.loc 1 125 1 view .LVU194
ARM GAS  /tmp/ccMZZQHw.s 			page 12


 500 0074 10BC     		pop	{r4}
 501              		.cfi_restore 4
 502              		.cfi_def_cfa_offset 0
 503 0076 7047     		bx	lr
 504              	.L18:
 505              		.align	2
 506              	.L17:
 507 0078 00000000 		.word	CAN_FilterId.0
 508 007c 00640040 		.word	1073767424
 509              		.cfi_endproc
 510              	.LFE68:
 512              		.section	.text.readMessage,"ax",%progbits
 513              		.align	1
 514              		.global	readMessage
 515              		.syntax unified
 516              		.thumb
 517              		.thumb_func
 519              	readMessage:
 520              	.LFB69:
 126:Core/Src/can_init.c **** 
 127:Core/Src/can_init.c **** void readMessage(void){
 521              		.loc 1 127 23 is_stmt 1 view -0
 522              		.cfi_startproc
 523              		@ args = 0, pretend = 0, frame = 0
 524              		@ frame_needed = 0, uses_anonymous_args = 0
 525              		@ link register save eliminated.
 128:Core/Src/can_init.c ****   CAN_RxMsg.data[0] = (unsigned int)0x000000FF & (CAN1->sFIFOMailBox[0].RDLR);
 526              		.loc 1 128 3 view .LVU196
 527              		.loc 1 128 72 is_stmt 0 view .LVU197
 528 0000 124B     		ldr	r3, .L20
 529 0002 D3F8B811 		ldr	r1, [r3, #440]
 530              		.loc 1 128 21 view .LVU198
 531 0006 124A     		ldr	r2, .L20+4
 532 0008 1171     		strb	r1, [r2, #4]
 129:Core/Src/can_init.c ****   CAN_RxMsg.data[1] = (unsigned int)0x000000FF & (CAN1->sFIFOMailBox[0].RDLR >> 8);
 533              		.loc 1 129 3 is_stmt 1 view .LVU199
 534              		.loc 1 129 72 is_stmt 0 view .LVU200
 535 000a D3F8B811 		ldr	r1, [r3, #440]
 536              		.loc 1 129 78 view .LVU201
 537 000e 090A     		lsrs	r1, r1, #8
 538              		.loc 1 129 21 view .LVU202
 539 0010 5171     		strb	r1, [r2, #5]
 130:Core/Src/can_init.c ****   CAN_RxMsg.data[2] = (unsigned int)0x000000FF & (CAN1->sFIFOMailBox[0].RDLR >> 16);
 540              		.loc 1 130 3 is_stmt 1 view .LVU203
 541              		.loc 1 130 72 is_stmt 0 view .LVU204
 542 0012 D3F8B811 		ldr	r1, [r3, #440]
 543              		.loc 1 130 78 view .LVU205
 544 0016 090C     		lsrs	r1, r1, #16
 545              		.loc 1 130 21 view .LVU206
 546 0018 9171     		strb	r1, [r2, #6]
 131:Core/Src/can_init.c ****   CAN_RxMsg.data[3] = (unsigned int)0x000000FF & (CAN1->sFIFOMailBox[0].RDLR >> 24);
 547              		.loc 1 131 3 is_stmt 1 view .LVU207
 548              		.loc 1 131 72 is_stmt 0 view .LVU208
 549 001a D3F8B811 		ldr	r1, [r3, #440]
 550              		.loc 1 131 78 view .LVU209
 551 001e 090E     		lsrs	r1, r1, #24
 552              		.loc 1 131 21 view .LVU210
ARM GAS  /tmp/ccMZZQHw.s 			page 13


 553 0020 D171     		strb	r1, [r2, #7]
 132:Core/Src/can_init.c ****   CAN_RxMsg.data[4] = (unsigned int)0x000000FF & (CAN1->sFIFOMailBox[0].RDHR);
 554              		.loc 1 132 3 is_stmt 1 view .LVU211
 555              		.loc 1 132 72 is_stmt 0 view .LVU212
 556 0022 D3F8BC11 		ldr	r1, [r3, #444]
 557              		.loc 1 132 21 view .LVU213
 558 0026 1172     		strb	r1, [r2, #8]
 133:Core/Src/can_init.c ****   CAN_RxMsg.data[5] = (unsigned int)0x000000FF & (CAN1->sFIFOMailBox[0].RDHR >> 8);
 559              		.loc 1 133 3 is_stmt 1 view .LVU214
 560              		.loc 1 133 72 is_stmt 0 view .LVU215
 561 0028 D3F8BC11 		ldr	r1, [r3, #444]
 562              		.loc 1 133 78 view .LVU216
 563 002c 090A     		lsrs	r1, r1, #8
 564              		.loc 1 133 21 view .LVU217
 565 002e 5172     		strb	r1, [r2, #9]
 134:Core/Src/can_init.c ****   CAN_RxMsg.data[6] = (unsigned int)0x000000FF & (CAN1->sFIFOMailBox[0].RDHR >> 16);
 566              		.loc 1 134 3 is_stmt 1 view .LVU218
 567              		.loc 1 134 72 is_stmt 0 view .LVU219
 568 0030 D3F8BC11 		ldr	r1, [r3, #444]
 569              		.loc 1 134 78 view .LVU220
 570 0034 090C     		lsrs	r1, r1, #16
 571              		.loc 1 134 21 view .LVU221
 572 0036 9172     		strb	r1, [r2, #10]
 135:Core/Src/can_init.c ****   CAN_RxMsg.data[7] = (unsigned int)0x000000FF & (CAN1->sFIFOMailBox[0].RDHR >> 24);
 573              		.loc 1 135 3 is_stmt 1 view .LVU222
 574              		.loc 1 135 72 is_stmt 0 view .LVU223
 575 0038 D3F8BC11 		ldr	r1, [r3, #444]
 576              		.loc 1 135 78 view .LVU224
 577 003c 090E     		lsrs	r1, r1, #24
 578              		.loc 1 135 21 view .LVU225
 579 003e D172     		strb	r1, [r2, #11]
 136:Core/Src/can_init.c **** 
 137:Core/Src/can_init.c ****   CAN1->RF0R |= CAN_RF0R_RFOM0;
 580              		.loc 1 137 3 is_stmt 1 view .LVU226
 581              		.loc 1 137 7 is_stmt 0 view .LVU227
 582 0040 DA68     		ldr	r2, [r3, #12]
 583              		.loc 1 137 14 view .LVU228
 584 0042 42F02002 		orr	r2, r2, #32
 585 0046 DA60     		str	r2, [r3, #12]
 138:Core/Src/can_init.c **** }
 586              		.loc 1 138 1 view .LVU229
 587 0048 7047     		bx	lr
 588              	.L21:
 589 004a 00BF     		.align	2
 590              	.L20:
 591 004c 00640040 		.word	1073767424
 592 0050 00000000 		.word	CAN_RxMsg
 593              		.cfi_endproc
 594              	.LFE69:
 596              		.section	.text.can_mesaj_gonderla,"ax",%progbits
 597              		.align	1
 598              		.global	can_mesaj_gonderla
 599              		.syntax unified
 600              		.thumb
 601              		.thumb_func
 603              	can_mesaj_gonderla:
 604              	.LFB70:
ARM GAS  /tmp/ccMZZQHw.s 			page 14


 139:Core/Src/can_init.c **** 
 140:Core/Src/can_init.c **** void can_mesaj_gonderla(void){
 605              		.loc 1 140 30 is_stmt 1 view -0
 606              		.cfi_startproc
 607              		@ args = 0, pretend = 0, frame = 0
 608              		@ frame_needed = 0, uses_anonymous_args = 0
 609              		@ link register save eliminated.
 141:Core/Src/can_init.c ****     //CAN1->sTxMailBox[0].TIR = 0; //reset TIR register, reset value = 0xXXXXXXXX
 142:Core/Src/can_init.c ****     //CAN1->sTxMailBox[0].TIR |= (1<<2); //extended identifier
 143:Core/Src/can_init.c ****     /*
 144:Core/Src/can_init.c ****       bits between 3 to 20 (18 bits) are responsible for LSBs of Extended identifier
 145:Core/Src/can_init.c ****       bits between 21 to 31 (11 bits) are resbonsible for MSBs of Extended identifier when bit 2 is
 146:Core/Src/can_init.c ****       obviously these bits are for Mailboxes (for transmitting identifiers)
 147:Core/Src/can_init.c ****     */
 148:Core/Src/can_init.c ****     //CAN1->sTxMailBox[0].TIR |= (0x3FFFF<<3); 
 149:Core/Src/can_init.c ****     // Setup type information
 150:Core/Src/can_init.c ****     //CAN1->sTxMailBox[0].TIR &= ~(1<<1); // data frame 
 151:Core/Src/can_init.c ****     // Setup data bytes
 152:Core/Src/can_init.c ****     CAN1->sTxMailBox[0].TDLR = (((unsigned int)CAN_TxMsg.data[3] << 24) | 
 610              		.loc 1 152 5 view .LVU231
 611              		.loc 1 152 62 is_stmt 0 view .LVU232
 612 0000 1E49     		ldr	r1, .L23
 613 0002 CB79     		ldrb	r3, [r1, #7]	@ zero_extendqisi2
 153:Core/Src/can_init.c ****                                 ((unsigned int)CAN_TxMsg.data[2] << 16) |
 614              		.loc 1 153 62 view .LVU233
 615 0004 8A79     		ldrb	r2, [r1, #6]	@ zero_extendqisi2
 616              		.loc 1 153 66 view .LVU234
 617 0006 1204     		lsls	r2, r2, #16
 152:Core/Src/can_init.c ****                                 ((unsigned int)CAN_TxMsg.data[2] << 16) |
 618              		.loc 1 152 73 view .LVU235
 619 0008 42EA0362 		orr	r2, r2, r3, lsl #24
 154:Core/Src/can_init.c ****                                 ((unsigned int)CAN_TxMsg.data[1] <<  8) | 
 620              		.loc 1 154 62 view .LVU236
 621 000c 4B79     		ldrb	r3, [r1, #5]	@ zero_extendqisi2
 153:Core/Src/can_init.c ****                                 ((unsigned int)CAN_TxMsg.data[2] << 16) |
 622              		.loc 1 153 73 view .LVU237
 623 000e 42EA0322 		orr	r2, r2, r3, lsl #8
 155:Core/Src/can_init.c ****     ((unsigned int)CAN_TxMsg.data[0]));
 624              		.loc 1 155 34 view .LVU238
 625 0012 0B79     		ldrb	r3, [r1, #4]	@ zero_extendqisi2
 154:Core/Src/can_init.c ****                                 ((unsigned int)CAN_TxMsg.data[1] <<  8) | 
 626              		.loc 1 154 73 view .LVU239
 627 0014 1A43     		orrs	r2, r2, r3
 152:Core/Src/can_init.c ****                                 ((unsigned int)CAN_TxMsg.data[2] << 16) |
 628              		.loc 1 152 30 view .LVU240
 629 0016 1A4B     		ldr	r3, .L23+4
 630 0018 C3F88821 		str	r2, [r3, #392]
 156:Core/Src/can_init.c ****     CAN1->sTxMailBox[0].TDHR = (((unsigned int)CAN_TxMsg.data[7] << 24) | 
 631              		.loc 1 156 5 is_stmt 1 view .LVU241
 632              		.loc 1 156 62 is_stmt 0 view .LVU242
 633 001c C87A     		ldrb	r0, [r1, #11]	@ zero_extendqisi2
 157:Core/Src/can_init.c ****                                 ((unsigned int)CAN_TxMsg.data[6] << 16) |
 634              		.loc 1 157 62 view .LVU243
 635 001e 8A7A     		ldrb	r2, [r1, #10]	@ zero_extendqisi2
 636              		.loc 1 157 66 view .LVU244
 637 0020 1204     		lsls	r2, r2, #16
 156:Core/Src/can_init.c ****     CAN1->sTxMailBox[0].TDHR = (((unsigned int)CAN_TxMsg.data[7] << 24) | 
ARM GAS  /tmp/ccMZZQHw.s 			page 15


 638              		.loc 1 156 73 view .LVU245
 639 0022 42EA0062 		orr	r2, r2, r0, lsl #24
 158:Core/Src/can_init.c ****                                 ((unsigned int)CAN_TxMsg.data[5] <<  8) |
 640              		.loc 1 158 62 view .LVU246
 641 0026 487A     		ldrb	r0, [r1, #9]	@ zero_extendqisi2
 157:Core/Src/can_init.c ****                                 ((unsigned int)CAN_TxMsg.data[6] << 16) |
 642              		.loc 1 157 73 view .LVU247
 643 0028 42EA0022 		orr	r2, r2, r0, lsl #8
 159:Core/Src/can_init.c ****                                 ((unsigned int)CAN_TxMsg.data[4]));
 644              		.loc 1 159 62 view .LVU248
 645 002c 097A     		ldrb	r1, [r1, #8]	@ zero_extendqisi2
 158:Core/Src/can_init.c ****                                 ((unsigned int)CAN_TxMsg.data[5] <<  8) |
 646              		.loc 1 158 73 view .LVU249
 647 002e 0A43     		orrs	r2, r2, r1
 156:Core/Src/can_init.c ****                                 ((unsigned int)CAN_TxMsg.data[6] << 16) |
 648              		.loc 1 156 30 view .LVU250
 649 0030 C3F88C21 		str	r2, [r3, #396]
 160:Core/Src/can_init.c ****     //SETUP LENGTH             
 161:Core/Src/can_init.c ****     CAN1->sTxMailBox[0].TDTR |= (1<<3);
 650              		.loc 1 161 5 is_stmt 1 view .LVU251
 651              		.loc 1 161 24 is_stmt 0 view .LVU252
 652 0034 D3F88421 		ldr	r2, [r3, #388]
 653              		.loc 1 161 30 view .LVU253
 654 0038 42F00802 		orr	r2, r2, #8
 655 003c C3F88421 		str	r2, [r3, #388]
 162:Core/Src/can_init.c ****     CAN1->sTxMailBox[0].TDTR |= (1<<2);
 656              		.loc 1 162 5 is_stmt 1 view .LVU254
 657              		.loc 1 162 24 is_stmt 0 view .LVU255
 658 0040 D3F88421 		ldr	r2, [r3, #388]
 659              		.loc 1 162 30 view .LVU256
 660 0044 42F00402 		orr	r2, r2, #4
 661 0048 C3F88421 		str	r2, [r3, #388]
 163:Core/Src/can_init.c ****     CAN1->sTxMailBox[0].TDTR |= (1<<1);
 662              		.loc 1 163 5 is_stmt 1 view .LVU257
 663              		.loc 1 163 24 is_stmt 0 view .LVU258
 664 004c D3F88421 		ldr	r2, [r3, #388]
 665              		.loc 1 163 30 view .LVU259
 666 0050 42F00202 		orr	r2, r2, #2
 667 0054 C3F88421 		str	r2, [r3, #388]
 164:Core/Src/can_init.c ****     CAN1->sTxMailBox[0].TDTR |= (1<<0);
 668              		.loc 1 164 5 is_stmt 1 view .LVU260
 669              		.loc 1 164 24 is_stmt 0 view .LVU261
 670 0058 D3F88421 		ldr	r2, [r3, #388]
 671              		.loc 1 164 30 view .LVU262
 672 005c 42F00102 		orr	r2, r2, #1
 673 0060 C3F88421 		str	r2, [r3, #388]
 165:Core/Src/can_init.c ****     CAN1->IER |= (1<<0);                   // Enable TME interrup
 674              		.loc 1 165 5 is_stmt 1 view .LVU263
 675              		.loc 1 165 9 is_stmt 0 view .LVU264
 676 0064 5A69     		ldr	r2, [r3, #20]
 677              		.loc 1 165 15 view .LVU265
 678 0066 42F00102 		orr	r2, r2, #1
 679 006a 5A61     		str	r2, [r3, #20]
 166:Core/Src/can_init.c ****     CAN1->sTxMailBox[0].TIR |= (1<<0);     // Transmit message   
 680              		.loc 1 166 5 is_stmt 1 view .LVU266
 681              		.loc 1 166 24 is_stmt 0 view .LVU267
 682 006c D3F88021 		ldr	r2, [r3, #384]
ARM GAS  /tmp/ccMZZQHw.s 			page 16


 683              		.loc 1 166 29 view .LVU268
 684 0070 42F00102 		orr	r2, r2, #1
 685 0074 C3F88021 		str	r2, [r3, #384]
 167:Core/Src/can_init.c **** }
 686              		.loc 1 167 1 view .LVU269
 687 0078 7047     		bx	lr
 688              	.L24:
 689 007a 00BF     		.align	2
 690              	.L23:
 691 007c 00000000 		.word	CAN_TxMsg
 692 0080 00640040 		.word	1073767424
 693              		.cfi_endproc
 694              	.LFE70:
 696              		.section	.bss.CAN_FilterId.0,"aw",%nobits
 697              		.align	1
 700              	CAN_FilterId.0:
 701 0000 0000     		.space	2
 702              		.global	CAN_RxMsg
 703              		.section	.bss.CAN_RxMsg,"aw",%nobits
 704              		.align	2
 707              	CAN_RxMsg:
 708 0000 00000000 		.space	16
 708      00000000 
 708      00000000 
 708      00000000 
 709              		.global	CAN_TxMsg
 710              		.section	.bss.CAN_TxMsg,"aw",%nobits
 711              		.align	2
 714              	CAN_TxMsg:
 715 0000 00000000 		.space	16
 715      00000000 
 715      00000000 
 715      00000000 
 716              		.text
 717              	.Letext0:
 718              		.file 2 "/home/bugraaa/.config/Code/User/globalStorage/bmd.stm32-for-vscode/@xpack-dev-tools/arm-n
 719              		.file 3 "/home/bugraaa/.config/Code/User/globalStorage/bmd.stm32-for-vscode/@xpack-dev-tools/arm-n
 720              		.file 4 "Drivers/CMSIS/Include/core_cm3.h"
 721              		.file 5 "Drivers/CMSIS/Device/ST/STM32F1xx/Include/stm32f103xb.h"
 722              		.file 6 "Core/Inc/can_init.h"
ARM GAS  /tmp/ccMZZQHw.s 			page 17


DEFINED SYMBOLS
                            *ABS*:00000000 can_init.c
     /tmp/ccMZZQHw.s:19     .text.clock_enable:00000000 $t
     /tmp/ccMZZQHw.s:25     .text.clock_enable:00000000 clock_enable
     /tmp/ccMZZQHw.s:56     .text.clock_enable:0000001c $d
     /tmp/ccMZZQHw.s:61     .text.gpio_enable:00000000 $t
     /tmp/ccMZZQHw.s:67     .text.gpio_enable:00000000 gpio_enable
     /tmp/ccMZZQHw.s:132    .text.gpio_enable:00000048 $d
     /tmp/ccMZZQHw.s:137    .text.can_init:00000000 $t
     /tmp/ccMZZQHw.s:143    .text.can_init:00000000 can_init
     /tmp/ccMZZQHw.s:401    .text.can_init:00000168 $d
     /tmp/ccMZZQHw.s:714    .bss.CAN_TxMsg:00000000 CAN_TxMsg
     /tmp/ccMZZQHw.s:408    .text.can_filtre_ayarlama_takay03:00000000 $t
     /tmp/ccMZZQHw.s:414    .text.can_filtre_ayarlama_takay03:00000000 can_filtre_ayarlama_takay03
     /tmp/ccMZZQHw.s:507    .text.can_filtre_ayarlama_takay03:00000078 $d
     /tmp/ccMZZQHw.s:700    .bss.CAN_FilterId.0:00000000 CAN_FilterId.0
     /tmp/ccMZZQHw.s:513    .text.readMessage:00000000 $t
     /tmp/ccMZZQHw.s:519    .text.readMessage:00000000 readMessage
     /tmp/ccMZZQHw.s:591    .text.readMessage:0000004c $d
     /tmp/ccMZZQHw.s:707    .bss.CAN_RxMsg:00000000 CAN_RxMsg
     /tmp/ccMZZQHw.s:597    .text.can_mesaj_gonderla:00000000 $t
     /tmp/ccMZZQHw.s:603    .text.can_mesaj_gonderla:00000000 can_mesaj_gonderla
     /tmp/ccMZZQHw.s:691    .text.can_mesaj_gonderla:0000007c $d
     /tmp/ccMZZQHw.s:697    .bss.CAN_FilterId.0:00000000 $d
     /tmp/ccMZZQHw.s:704    .bss.CAN_RxMsg:00000000 $d
     /tmp/ccMZZQHw.s:711    .bss.CAN_TxMsg:00000000 $d

NO UNDEFINED SYMBOLS
